Certificate:
    Data:
        Version: 3 (0x2)
        Serial Number: 85 (0x55)
    Signature Algorithm: sha1WithRSAEncryption
        Issuer: C=US, ST=Pennsylvania, L=Pittsburgh, O=CMU, OU=15-441, CN=15-441 CMU CA/emailAddress=staf-441@cs.cmu.edu
        Validity
            Not Before: Oct  5 23:19:49 2016 GMT
            Not After : Oct  5 23:19:49 2017 GMT
        Subject: C=US, ST=Pennsylvania, L=Pittsburgh, O=xiaotons Corp., OU=xiaotons Organizational Unit, CN=zhuansunxt.hopto.org/emailAddress=zhuansunxt@gmail.com
        Subject Public Key Info:
            Public Key Algorithm: rsaEncryption
                Public-Key: (4096 bit)
                Modulus:
                    00:98:63:13:b3:bc:fd:ba:55:28:7c:1d:6d:04:70:
                    d5:6d:36:20:2f:6b:b0:b5:fd:e3:a4:56:bb:18:e8:
                    d0:5e:1a:7c:a7:ba:97:5e:eb:e8:8d:4c:45:d8:01:
                    0a:bf:71:f1:55:f0:71:e0:81:1a:60:aa:fa:9b:56:
                    66:03:72:30:50:fa:e7:99:7e:6a:6c:c2:8c:cb:03:
                    b0:90:68:a7:29:1c:29:90:c9:ea:2a:9a:dc:46:19:
                    f8:12:a0:77:f4:3b:98:ec:60:f5:76:ec:6c:3b:8d:
                    e6:47:ca:77:f5:e3:72:e2:5d:d4:b1:49:d9:7c:46:
                    e7:57:98:5b:64:ed:98:40:08:27:e6:0e:9b:22:05:
                    10:a1:99:80:3c:20:30:33:5d:28:89:e5:69:66:66:
                    13:b7:76:3f:3c:9c:4f:0e:ec:0b:44:12:e8:2a:41:
                    b5:5d:b0:b4:61:5b:3d:86:0b:f1:7f:74:40:b7:aa:
                    7e:6b:44:66:f1:a6:c7:72:d1:d5:26:bd:b6:5d:4f:
                    fc:f4:f1:50:22:ca:67:00:ac:f2:fb:a6:7e:a3:e4:
                    32:00:cf:d7:35:34:ec:36:00:88:7e:1e:26:ae:2b:
                    4d:2d:a3:8e:6d:93:b8:26:01:58:99:79:c3:94:f6:
                    d1:8f:1c:de:6a:9d:a4:db:8f:0d:e0:12:9a:38:77:
                    66:ee:3a:a0:ea:e0:51:48:09:47:47:2b:fb:72:98:
                    71:55:3a:25:20:b3:40:f3:48:61:89:2e:b3:42:4d:
                    e7:29:24:a8:76:93:e8:91:ef:2c:c5:7b:4d:e9:82:
                    c7:9a:ad:0a:60:a2:1e:77:7c:0a:83:b3:21:48:9c:
                    f3:93:6f:39:7b:c5:3b:63:22:8b:48:76:4f:65:c0:
                    48:16:c6:fa:6e:68:ed:52:09:f7:8c:6e:3c:e0:12:
                    ab:d4:22:7b:5a:af:ab:df:54:28:ba:6f:e5:8a:78:
                    34:7e:fd:f9:36:c1:a1:d4:40:7e:a6:98:16:6e:43:
                    38:f9:20:69:20:db:0f:93:83:b9:e9:5b:f1:32:54:
                    67:9f:99:02:0b:cd:c1:10:51:2a:93:34:f9:b8:f5:
                    b5:e6:00:0e:18:f6:da:e1:79:cc:d3:77:47:66:8a:
                    06:9a:b9:6f:27:40:62:56:fc:d2:6f:78:ef:bd:4a:
                    1f:4f:54:d6:49:64:fd:0a:0b:c1:4f:8a:68:58:1b:
                    c5:25:6c:77:38:d1:66:33:30:90:53:7e:ed:66:9c:
                    e4:98:2b:59:3f:af:9e:b0:aa:73:99:59:61:d4:5c:
                    8a:1b:d7:26:34:29:f8:25:cd:b3:5f:aa:17:b6:2b:
                    3c:7b:c1:6f:ef:3a:5e:63:bb:94:d9:29:79:e4:55:
                    93:e6:29
                Exponent: 65537 (0x10001)
        X509v3 extensions:
            X509v3 Basic Constraints: 
                CA:FALSE
            Netscape Comment: 
                15-441 CMU CA OpenSSL Generated Certificate
            X509v3 Subject Key Identifier: 
                13:64:27:C3:90:1C:62:46:19:A9:90:2E:8B:3C:79:C6:FB:B4:82:1D
            X509v3 Authority Key Identifier: 
                keyid:88:A4:AA:5C:48:64:CD:34:1B:FD:9F:69:F6:43:49:25:A4:52:C2:E1

    Signature Algorithm: sha1WithRSAEncryption
         0c:5e:5e:7d:d0:46:f1:c4:bf:3b:d7:6b:0c:c7:27:85:04:f4:
         d5:c4:be:32:4e:38:bb:bb:ed:60:3a:e4:1d:dd:03:db:72:09:
         55:69:8f:e2:46:18:90:82:ec:35:f7:b2:4f:00:c1:ea:de:8d:
         68:1c:d4:2a:18:3d:9f:eb:64:84:99:ad:c1:31:dd:df:68:74:
         1f:20:b1:bd:ed:6f:a5:56:63:c6:5e:5c:ee:b5:7b:5e:59:83:
         c8:64:a6:d8:81:9f:99:02:0d:71:91:3c:67:83:ba:91:a1:94:
         06:c1:71:60:4e:45:9b:a3:ad:d3:fc:aa:1e:9d:ba:63:b9:4e:
         a2:2c:00:88:d0:37:f5:af:a5:6b:5c:50:7f:1c:7a:21:9a:e6:
         1c:e8:81:2e:7f:37:ab:91:f2:c0:ec:1f:d1:95:34:de:f6:04:
         b1:8c:26:ed:b9:47:6a:8c:e3:43:15:b4:cb:5f:5d:f0:63:b6:
         08:b5:29:13:78:fb:8a:c8:d7:40:37:22:4d:9c:16:e9:6a:e5:
         55:0b:ce:b3:1f:c9:f0:e2:c5:9a:b6:83:07:6f:1d:82:68:ff:
         e5:2a:46:74:9a:03:6f:e8:b9:5e:e3:67:0c:a7:33:e7:03:74:
         35:0b:c5:f6:18:1d:cd:f8:e8:e3:b7:27:ae:a3:1b:90:65:51:
         7b:f7:9d:39:b4:14:fe:85:eb:6a:a9:7e:60:f6:26:67:8f:dc:
         69:43:7b:92:7d:b8:b2:03:a2:4e:26:9c:a0:92:55:4b:30:a7:
         fb:f2:f9:8f:80:98:0d:44:3d:6d:47:a9:7d:25:f3:b6:79:c5:
         b8:93:7e:08:9e:5b:ee:3d:39:0d:3c:be:cf:84:5f:0b:cf:86:
         c6:08:09:4f:87:dc:c2:8d:4a:90:87:f1:79:16:67:b1:56:1b:
         67:31:1a:2f:98:8f:55:36:83:f1:05:82:47:35:15:a3:49:05:
         af:7a:07:7d:c8:52:be:64:2c:cd:cc:7a:4c:39:60:6d:61:d1:
         1e:d7:42:7c:4b:8d:c8:aa:8d:7a:55:4c:a3:0e:cb:df:65:80:
         21:7a:92:5c:b4:da:75:83:42:9b:f3:8e:3d:ec:94:ea:78:6c:
         ad:95:35:39:ca:af:4f:27:74:d6:6a:21:cf:4b:55:05:38:f9:
         b8:88:04:33:63:9a:42:61:3f:68:c7:5d:70:9f:4c:5d:2b:7d:
         43:b0:2a:e3:92:46:47:50:1e:d5:85:6f:cd:e0:4e:1a:ac:b9:
         a6:36:8b:f1:00:95:92:03:65:76:a6:ae:1f:de:95:59:b2:e9:
         74:f1:14:e5:03:18:60:0a:28:4b:b9:1a:fb:e6:81:6c:6c:d3:
         62:f8:be:42:5e:a4:3b:a1
-----BEGIN CERTIFICATE-----
MIIGWTCCBEGgAwIBAgIBVTANBgkqhkiG9w0BAQUFADCBlDELMAkGA1UEBhMCVVMx
FTATBgNVBAgTDFBlbm5zeWx2YW5pYTETMBEGA1UEBxMKUGl0dHNidXJnaDEMMAoG
A1UEChMDQ01VMQ8wDQYDVQQLEwYxNS00NDExFjAUBgNVBAMTDTE1LTQ0MSBDTVUg
Q0ExIjAgBgkqhkiG9w0BCQEWE3N0YWYtNDQxQGNzLmNtdS5lZHUwHhcNMTYxMDA1
MjMxOTQ5WhcNMTcxMDA1MjMxOTQ5WjCBvTELMAkGA1UEBhMCVVMxFTATBgNVBAgT
DFBlbm5zeWx2YW5pYTETMBEGA1UEBxMKUGl0dHNidXJnaDEXMBUGA1UEChMOeGlh
b3RvbnMgQ29ycC4xJTAjBgNVBAsTHHhpYW90b25zIE9yZ2FuaXphdGlvbmFsIFVu
aXQxHTAbBgNVBAMTFHpodWFuc3VueHQuaG9wdG8ub3JnMSMwIQYJKoZIhvcNAQkB
FhR6aHVhbnN1bnh0QGdtYWlsLmNvbTCCAiIwDQYJKoZIhvcNAQEBBQADggIPADCC
AgoCggIBAJhjE7O8/bpVKHwdbQRw1W02IC9rsLX946RWuxjo0F4afKe6l17r6I1M
RdgBCr9x8VXwceCBGmCq+ptWZgNyMFD655l+amzCjMsDsJBopykcKZDJ6iqa3EYZ
+BKgd/Q7mOxg9XbsbDuN5kfKd/XjcuJd1LFJ2XxG51eYW2TtmEAIJ+YOmyIFEKGZ
gDwgMDNdKInlaWZmE7d2PzycTw7sC0QS6CpBtV2wtGFbPYYL8X90QLeqfmtEZvGm
x3LR1Sa9tl1P/PTxUCLKZwCs8vumfqPkMgDP1zU07DYAiH4eJq4rTS2jjm2TuCYB
WJl5w5T20Y8c3mqdpNuPDeASmjh3Zu46oOrgUUgJR0cr+3KYcVU6JSCzQPNIYYku
s0JN5ykkqHaT6JHvLMV7TemCx5qtCmCiHnd8CoOzIUic85NvOXvFO2Mii0h2T2XA
SBbG+m5o7VIJ94xuPOASq9Qie1qvq99UKLpv5Yp4NH79+TbBodRAfqaYFm5DOPkg
aSDbD5ODuelb8TJUZ5+ZAgvNwRBRKpM0+bj1teYADhj22uF5zNN3R2aKBpq5bydA
Ylb80m94771KH09U1klk/QoLwU+KaFgbxSVsdzjRZjMwkFN+7Wac5JgrWT+vnrCq
c5lZYdRcihvXJjQp+CXNs1+qF7YrPHvBb+86XmO7lNkpeeRVk+YpAgMBAAGjgYow
gYcwCQYDVR0TBAIwADA6BglghkgBhvhCAQ0ELRYrMTUtNDQxIENNVSBDQSBPcGVu
U1NMIEdlbmVyYXRlZCBDZXJ0aWZpY2F0ZTAdBgNVHQ4EFgQUE2Qnw5AcYkYZqZAu
izx5xvu0gh0wHwYDVR0jBBgwFoAUiKSqXEhkzTQb/Z9p9kNJJaRSwuEwDQYJKoZI
hvcNAQEFBQADggIBAAxeXn3QRvHEvzvXawzHJ4UE9NXEvjJOOLu77WA65B3dA9ty
CVVpj+JGGJCC7DX3sk8AwerejWgc1CoYPZ/rZISZrcEx3d9odB8gsb3tb6VWY8Ze
XO61e15Zg8hkptiBn5kCDXGRPGeDupGhlAbBcWBORZujrdP8qh6dumO5TqIsAIjQ
N/WvpWtcUH8ceiGa5hzogS5/N6uR8sDsH9GVNN72BLGMJu25R2qM40MVtMtfXfBj
tgi1KRN4+4rI10A3Ik2cFulq5VULzrMfyfDixZq2gwdvHYJo/+UqRnSaA2/ouV7j
ZwynM+cDdDULxfYYHc346OO3J66jG5BlUXv3nTm0FP6F62qpfmD2JmeP3GlDe5J9
uLIDok4mnKCSVUswp/vy+Y+AmA1EPW1HqX0l87Z5xbiTfgieW+49OQ08vs+EXwvP
hsYICU+H3MKNSpCH8XkWZ7FWG2cxGi+Yj1U2g/EFgkc1FaNJBa96B33IUr5kLM3M
ekw5YG1h0R7XQnxLjciqjXpVTKMOy99lgCF6kly02nWDQpvzjj3slOp4bK2VNTnK
r08ndNZqIc9LVQU4+biIBDNjmkJhP2jHXXCfTF0rfUOwKuOSRkdQHtWFb83gThqs
uaY2i/EAlZIDZXamrh/elVmy6XTxFOUDGGAKKEu5GvvmgWxs02L4vkJepDuh
-----END CERTIFICATE-----
